target datalayout = "e-m:e-p270:32:32-p271:32:32-p272:64:64-i64:64-i128:128-f80:128-n8:16:32:64-S128"
target triple = "x86_64-pc-linux-gnu"

%struct.bufferevent = type { ptr, ptr, %struct.event, %struct.event, ptr, ptr, %struct.event_watermark, %struct.event_watermark, ptr, ptr, ptr, ptr, %struct.timeval, %struct.timeval, i16 }
%struct.event = type { %struct.event_callback, %union.anon.0, i32, i16, i16, ptr, %union.anon.2, %struct.timeval }
%struct.event_callback = type { %struct.anon, i16, i8, i8, %union.anon, ptr }
%struct.anon = type { ptr, ptr }
%union.anon = type { ptr }
%union.anon.0 = type { %struct.anon.1 }
%struct.anon.1 = type { ptr, ptr }
%union.anon.2 = type { %struct.anon.3 }
%struct.anon.3 = type { %struct.anon.4, %struct.timeval }
%struct.anon.4 = type { ptr, ptr }
%struct.event_watermark = type { i64, i64 }
%struct.timeval = type { i64, i64 }
%struct.bufferevent_filtered = type { %struct.bufferevent_private, ptr, ptr, ptr, i32, ptr, ptr, ptr, ptr }
%struct.bufferevent_private = type { %struct.bufferevent, ptr, i8, i16, i16, i16, i32, i32, %struct.event_callback, i32, i32, ptr, i64, i64, ptr, %union.anon.7, ptr }
%union.anon.7 = type { %struct.sockaddr_in6 }
%struct.sockaddr_in6 = type { i16, i16, i32, %struct.in6_addr, i32 }
%struct.in6_addr = type { %union.anon.8 }
%union.anon.8 = type { [4 x i32] }

; Function Attrs: nounwind uwtable
define internal i32 @be_readbuf_full(ptr noundef %0, i32 noundef %1) #0 {
  %3 = alloca ptr, align 8
  %4 = alloca i32, align 4
  %5 = alloca ptr, align 8
  store ptr %0, ptr %3, align 8
  store i32 %1, ptr %4, align 4
  call void @llvm.lifetime.start.p0(i64 8, ptr %5) #4
  %6 = load ptr, ptr %3, align 8
  %7 = getelementptr inbounds nuw %struct.bufferevent_filtered, ptr %6, i32 0, i32 0
  %8 = getelementptr inbounds nuw %struct.bufferevent_private, ptr %7, i32 0, i32 0
  store ptr %8, ptr %5, align 8
  %9 = load i32, ptr %4, align 4
  %10 = icmp eq i32 %9, 0
  br i1 %10, label %11, label %27

11:                                               ; preds = %2
  %12 = load ptr, ptr %5, align 8
  %13 = getelementptr inbounds nuw %struct.bufferevent, ptr %12, i32 0, i32 6
  %14 = getelementptr inbounds nuw %struct.event_watermark, ptr %13, i32 0, i32 1
  %15 = load i64, ptr %14, align 8
  %16 = icmp ne i64 %15, 0
  br i1 %16, label %17, label %27

17:                                               ; preds = %11
  %18 = load ptr, ptr %5, align 8
  %19 = getelementptr inbounds nuw %struct.bufferevent, ptr %18, i32 0, i32 4
  %20 = load ptr, ptr %19, align 8
  %21 = call i64 @evbuffer_get_length(ptr noundef %20)
  %22 = load ptr, ptr %5, align 8
  %23 = getelementptr inbounds nuw %struct.bufferevent, ptr %22, i32 0, i32 6
  %24 = getelementptr inbounds nuw %struct.event_watermark, ptr %23, i32 0, i32 1
  %25 = load i64, ptr %24, align 8
  %26 = icmp uge i64 %21, %25
  br label %27

27:                                               ; preds = %17, %11, %2
  %28 = phi i1 [ false, %11 ], [ false, %2 ], [ %26, %17 ]
  %29 = zext i1 %28 to i32
  call void @llvm.lifetime.end.p0(i64 8, ptr %5) #4
  ret i32 %29
}

; Function Attrs: nounwind uwtable
define internal i32 @be_filter_process_input(ptr noundef %0, i32 noundef %1, ptr noundef %2) #0 {
  %4 = alloca i32, align 4
  %5 = alloca ptr, align 8
  %6 = alloca i32, align 4
  %7 = alloca ptr, align 8
  %8 = alloca i32, align 4
  %9 = alloca ptr, align 8
  %10 = alloca i32, align 4
  %11 = alloca i64, align 8
  store ptr %0, ptr %5, align 8
  store i32 %1, ptr %6, align 4
  store ptr %2, ptr %7, align 8
  call void @llvm.lifetime.start.p0(i64 4, ptr %8) #4
  call void @llvm.lifetime.start.p0(i64 8, ptr %9) #4
  %12 = load ptr, ptr %5, align 8
  %13 = getelementptr inbounds nuw %struct.bufferevent_filtered, ptr %12, i32 0, i32 0
  %14 = getelementptr inbounds nuw %struct.bufferevent_private, ptr %13, i32 0, i32 0
  store ptr %14, ptr %9, align 8
  %15 = load i32, ptr %6, align 4
  %16 = icmp eq i32 %15, 0
  br i1 %16, label %17, label %31

17:                                               ; preds = %3
  %18 = load ptr, ptr %9, align 8
  %19 = getelementptr inbounds nuw %struct.bufferevent, ptr %18, i32 0, i32 14
  %20 = load i16, ptr %19, align 8
  %21 = sext i16 %20 to i32
  %22 = and i32 %21, 2
  %23 = icmp ne i32 %22, 0
  br i1 %23, label %24, label %29

24:                                               ; preds = %17
  %25 = load ptr, ptr %5, align 8
  %26 = load i32, ptr %6, align 4
  %27 = call i32 @be_readbuf_full(ptr noundef %25, i32 noundef %26)
  %28 = icmp ne i32 %27, 0
  br i1 %28, label %29, label %30

29:                                               ; preds = %24, %17
  store i32 0, ptr %4, align 4
  store i32 1, ptr %10, align 4
  br label %128

30:                                               ; preds = %24
  br label %31

31:                                               ; preds = %30, %3
  br label %32

32:                                               ; preds = %98, %31
  call void @llvm.lifetime.start.p0(i64 8, ptr %11) #4
  store i64 -1, ptr %11, align 8
  %33 = load i32, ptr %6, align 4
  %34 = icmp eq i32 %33, 0
  br i1 %34, label %35, label %51

35:                                               ; preds = %32
  %36 = load ptr, ptr %9, align 8
  %37 = getelementptr inbounds nuw %struct.bufferevent, ptr %36, i32 0, i32 6
  %38 = getelementptr inbounds nuw %struct.event_watermark, ptr %37, i32 0, i32 1
  %39 = load i64, ptr %38, align 8
  %40 = icmp ne i64 %39, 0
  br i1 %40, label %41, label %51

41:                                               ; preds = %35
  %42 = load ptr, ptr %9, align 8
  %43 = getelementptr inbounds nuw %struct.bufferevent, ptr %42, i32 0, i32 6
  %44 = getelementptr inbounds nuw %struct.event_watermark, ptr %43, i32 0, i32 1
  %45 = load i64, ptr %44, align 8
  %46 = load ptr, ptr %9, align 8
  %47 = getelementptr inbounds nuw %struct.bufferevent, ptr %46, i32 0, i32 4
  %48 = load ptr, ptr %47, align 8
  %49 = call i64 @evbuffer_get_length(ptr noundef %48)
  %50 = sub i64 %45, %49
  store i64 %50, ptr %11, align 8
  br label %51

51:                                               ; preds = %41, %35, %32
  %52 = load ptr, ptr %5, align 8
  %53 = getelementptr inbounds nuw %struct.bufferevent_filtered, ptr %52, i32 0, i32 6
  %54 = load ptr, ptr %53, align 8
  %55 = load ptr, ptr %5, align 8
  %56 = getelementptr inbounds nuw %struct.bufferevent_filtered, ptr %55, i32 0, i32 1
  %57 = load ptr, ptr %56, align 8
  %58 = getelementptr inbounds nuw %struct.bufferevent, ptr %57, i32 0, i32 4
  %59 = load ptr, ptr %58, align 8
  %60 = load ptr, ptr %9, align 8
  %61 = getelementptr inbounds nuw %struct.bufferevent, ptr %60, i32 0, i32 4
  %62 = load ptr, ptr %61, align 8
  %63 = load i64, ptr %11, align 8
  %64 = load i32, ptr %6, align 4
  %65 = load ptr, ptr %5, align 8
  %66 = getelementptr inbounds nuw %struct.bufferevent_filtered, ptr %65, i32 0, i32 8
  %67 = load ptr, ptr %66, align 8
  %68 = call i32 %54(ptr noundef %59, ptr noundef %62, i64 noundef %63, i32 noundef %64, ptr noundef %67)
  store i32 %68, ptr %8, align 4
  %69 = load i32, ptr %8, align 4
  %70 = icmp eq i32 %69, 0
  br i1 %70, label %71, label %73

71:                                               ; preds = %51
  %72 = load ptr, ptr %7, align 8
  store i32 1, ptr %72, align 4
  br label %73

73:                                               ; preds = %71, %51
  call void @llvm.lifetime.end.p0(i64 8, ptr %11) #4
  br label %74

74:                                               ; preds = %73
  %75 = load i32, ptr %8, align 4
  %76 = icmp eq i32 %75, 0
  br i1 %76, label %77, label %98

77:                                               ; preds = %74
  %78 = load ptr, ptr %9, align 8
  %79 = getelementptr inbounds nuw %struct.bufferevent, ptr %78, i32 0, i32 14
  %80 = load i16, ptr %79, align 8
  %81 = sext i16 %80 to i32
  %82 = and i32 %81, 2
  %83 = icmp ne i32 %82, 0
  br i1 %83, label %84, label %98

84:                                               ; preds = %77
  %85 = load ptr, ptr %5, align 8
  %86 = getelementptr inbounds nuw %struct.bufferevent_filtered, ptr %85, i32 0, i32 1
  %87 = load ptr, ptr %86, align 8
  %88 = getelementptr inbounds nuw %struct.bufferevent, ptr %87, i32 0, i32 4
  %89 = load ptr, ptr %88, align 8
  %90 = call i64 @evbuffer_get_length(ptr noundef %89)
  %91 = icmp ne i64 %90, 0
  br i1 %91, label %92, label %98

92:                                               ; preds = %84
  %93 = load ptr, ptr %5, align 8
  %94 = load i32, ptr %6, align 4
  %95 = call i32 @be_readbuf_full(ptr noundef %93, i32 noundef %94)
  %96 = icmp ne i32 %95, 0
  %97 = xor i1 %96, true
  br label %98

98:                                               ; preds = %92, %84, %77, %74
  %99 = phi i1 [ false, %84 ], [ false, %77 ], [ false, %74 ], [ %97, %92 ]
  br i1 %99, label %32, label %100, !llvm.loop !6

100:                                              ; preds = %98
  %101 = load ptr, ptr %7, align 8
  %102 = load i32, ptr %101, align 4
  %103 = icmp ne i32 %102, 0
  br i1 %103, label %104, label %126

104:                                              ; preds = %100
  br label %105

105:                                              ; preds = %104
  %106 = load ptr, ptr %9, align 8
  %107 = getelementptr inbounds nuw %struct.bufferevent, ptr %106, i32 0, i32 12
  %108 = getelementptr inbounds nuw %struct.timeval, ptr %107, i32 0, i32 0
  %109 = load i64, ptr %108, align 8
  %110 = icmp ne i64 %109, 0
  br i1 %110, label %117, label %111

111:                                              ; preds = %105
  %112 = load ptr, ptr %9, align 8
  %113 = getelementptr inbounds nuw %struct.bufferevent, ptr %112, i32 0, i32 12
  %114 = getelementptr inbounds nuw %struct.timeval, ptr %113, i32 0, i32 1
  %115 = load i64, ptr %114, align 8
  %116 = icmp ne i64 %115, 0
  br i1 %116, label %117, label %123

117:                                              ; preds = %111, %105
  %118 = load ptr, ptr %9, align 8
  %119 = getelementptr inbounds nuw %struct.bufferevent, ptr %118, i32 0, i32 2
  %120 = load ptr, ptr %9, align 8
  %121 = getelementptr inbounds nuw %struct.bufferevent, ptr %120, i32 0, i32 12
  %122 = call i32 @event_add(ptr noundef %119, ptr noundef %121)
  br label %123

123:                                              ; preds = %117, %111
  br label %124

124:                                              ; preds = %123
  br label %125

125:                                              ; preds = %124
  br label %126

126:                                              ; preds = %125, %100
  %127 = load i32, ptr %8, align 4
  store i32 %127, ptr %4, align 4
  store i32 1, ptr %10, align 4
  br label %128

128:                                              ; preds = %126, %29
  call void @llvm.lifetime.end.p0(i64 8, ptr %9) #4
  call void @llvm.lifetime.end.p0(i64 4, ptr %8) #4
  %129 = load i32, ptr %4, align 4
  ret i32 %129
}