; Function Attrs: nounwind uwtable
define internal fastcc void @be_filter_process_input(ptr noundef %0, i32 noundef %1, ptr noundef nonnull captures(none) %2) unnamed_addr #0 {
  %4 = icmp eq i32 %1, 0
  br i1 %4, label %5, label %be_readbuf_full.exit.thread.split

5:                                                ; preds = %3
  %6 = getelementptr inbounds nuw i8, ptr %0, i64 368
  %7 = load i16, ptr %6, align 8
  %8 = and i16 %7, 2
  %.not = icmp eq i16 %8, 0
  br i1 %.not, label %85, label %9

9:                                                ; preds = %5
  %10 = getelementptr inbounds nuw i8, ptr %0, i64 280
  %11 = load i64, ptr %10, align 8
  %.not.i = icmp eq i64 %11, 0
  br i1 %.not.i, label %be_readbuf_full.exit.thread.split.us.preheader, label %be_readbuf_full.exit

be_readbuf_full.exit:                             ; preds = %9
  %12 = getelementptr inbounds nuw i8, ptr %0, i64 256
  %13 = load ptr, ptr %12, align 8
  %14 = tail call i64 @evbuffer_get_length(ptr noundef %13) #3
  %15 = load i64, ptr %10, align 8
  %.not44 = icmp ult i64 %14, %15
  br i1 %.not44, label %be_readbuf_full.exit.thread.split.us.preheader, label %85

be_readbuf_full.exit.thread.split.us.preheader:   ; preds = %9, %be_readbuf_full.exit
  %16 = getelementptr inbounds nuw i8, ptr %0, i64 280
  %17 = getelementptr inbounds nuw i8, ptr %0, i64 256
  %18 = getelementptr inbounds nuw i8, ptr %0, i64 560
  %19 = getelementptr inbounds nuw i8, ptr %0, i64 520
  %20 = getelementptr inbounds nuw i8, ptr %0, i64 576
  %21 = getelementptr inbounds nuw i8, ptr %0, i64 368
  %.pre = load i64, ptr %16, align 8
  br label %be_readbuf_full.exit.thread.split.us

be_readbuf_full.exit.thread.split.us:             ; preds = %be_readbuf_full.exit.thread.split.us.backedge, %be_readbuf_full.exit.thread.split.us.preheader
  %22 = phi i64 [ %.pre, %be_readbuf_full.exit.thread.split.us.preheader ], [ %.be, %be_readbuf_full.exit.thread.split.us.backedge ]
  %.not32.us = icmp eq i64 %22, 0
  br i1 %.not32.us, label %27, label %23

23:                                               ; preds = %be_readbuf_full.exit.thread.split.us
  %24 = load ptr, ptr %17, align 8
  %25 = tail call i64 @evbuffer_get_length(ptr noundef %24) #3
  %26 = sub i64 %22, %25
  br label %27

27:                                               ; preds = %23, %be_readbuf_full.exit.thread.split.us
  %.0.us = phi i64 [ %26, %23 ], [ -1, %be_readbuf_full.exit.thread.split.us ]
  %28 = load ptr, ptr %18, align 8
  %29 = load ptr, ptr %19, align 8
  %30 = getelementptr inbounds nuw i8, ptr %29, i64 256
  %31 = load ptr, ptr %30, align 8
  %32 = load ptr, ptr %17, align 8
  %33 = load ptr, ptr %20, align 8
  %34 = tail call i32 %28(ptr noundef %31, ptr noundef %32, i64 noundef %.0.us, i32 noundef 0, ptr noundef %33) #3
  %35 = icmp eq i32 %34, 0
  br i1 %35, label %36, label %.critedge

36:                                               ; preds = %27
  store i32 1, ptr %2, align 4
  %37 = load i16, ptr %21, align 8
  %38 = and i16 %37, 2
  %.not33.us = icmp eq i16 %38, 0
  br i1 %.not33.us, label %.critedge.thread, label %39

39:                                               ; preds = %36
  %40 = load ptr, ptr %19, align 8
  %41 = getelementptr inbounds nuw i8, ptr %40, i64 256
  %42 = load ptr, ptr %41, align 8
  %43 = tail call i64 @evbuffer_get_length(ptr noundef %42) #3
  %.not34.us = icmp eq i64 %43, 0
  br i1 %.not34.us, label %.critedge, label %44

44:                                               ; preds = %39
  %45 = load i64, ptr %16, align 8
  %.not.i40.us = icmp eq i64 %45, 0
  br i1 %.not.i40.us, label %be_readbuf_full.exit.thread.split.us.backedge, label %be_readbuf_full.exit41.us

be_readbuf_full.exit.thread.split.us.backedge:    ; preds = %44, %be_readbuf_full.exit41.us
  %.be = phi i64 [ 0, %44 ], [ %48, %be_readbuf_full.exit41.us ]
  br label %be_readbuf_full.exit.thread.split.us, !llvm.loop !6

be_readbuf_full.exit41.us:                        ; preds = %44
  %46 = load ptr, ptr %17, align 8
  %47 = tail call i64 @evbuffer_get_length(ptr noundef %46) #3
  %48 = load i64, ptr %16, align 8
  %.not45.us = icmp ult i64 %47, %48
  br i1 %.not45.us, label %be_readbuf_full.exit.thread.split.us.backedge, label %.critedge

be_readbuf_full.exit.thread.split:                ; preds = %3
  %49 = getelementptr inbounds nuw i8, ptr %0, i64 256
  %50 = getelementptr inbounds nuw i8, ptr %0, i64 560
  %51 = getelementptr inbounds nuw i8, ptr %0, i64 520
  %52 = getelementptr inbounds nuw i8, ptr %0, i64 576
  %53 = getelementptr inbounds nuw i8, ptr %0, i64 368
  %54 = load ptr, ptr %50, align 8
  %55 = load ptr, ptr %51, align 8
  %56 = getelementptr inbounds nuw i8, ptr %55, i64 256
  %57 = load ptr, ptr %56, align 8
  %58 = load ptr, ptr %49, align 8
  %59 = load ptr, ptr %52, align 8
  %60 = tail call i32 %54(ptr noundef %57, ptr noundef %58, i64 noundef -1, i32 noundef %1, ptr noundef %59) #3
  %61 = icmp eq i32 %60, 0
  br i1 %61, label %.lr.ph, label %.critedge

62:                                               ; preds = %.critedge46
  %63 = load ptr, ptr %50, align 8
  %64 = load ptr, ptr %51, align 8
  %65 = getelementptr inbounds nuw i8, ptr %64, i64 256
  %66 = load ptr, ptr %65, align 8
  %67 = load ptr, ptr %49, align 8
  %68 = load ptr, ptr %52, align 8
  %69 = tail call i32 %63(ptr noundef %66, ptr noundef %67, i64 noundef -1, i32 noundef %1, ptr noundef %68) #3
  %70 = icmp eq i32 %69, 0
  br i1 %70, label %.lr.ph, label %.critedge, !llvm.loop !6

.lr.ph:                                           ; preds = %be_readbuf_full.exit.thread.split, %62
  store i32 1, ptr %2, align 4
  %71 = load i16, ptr %53, align 8
  %72 = and i16 %71, 2
  %.not33 = icmp eq i16 %72, 0
  br i1 %.not33, label %.critedge.thread, label %.critedge46

.critedge46:                                      ; preds = %.lr.ph
  %73 = load ptr, ptr %51, align 8
  %74 = getelementptr inbounds nuw i8, ptr %73, i64 256
  %75 = load ptr, ptr %74, align 8
  %76 = tail call i64 @evbuffer_get_length(ptr noundef %75) #3
  %.not34 = icmp eq i64 %76, 0
  br i1 %.not34, label %.critedge, label %62

.critedge:                                        ; preds = %62, %.critedge46, %27, %39, %be_readbuf_full.exit41.us, %be_readbuf_full.exit.thread.split
  %.pr = load i32, ptr %2, align 4
  %.not36 = icmp eq i32 %.pr, 0
  br i1 %.not36, label %85, label %.critedge.thread

.critedge.thread:                                 ; preds = %.lr.ph, %36, %.critedge
  %77 = getelementptr inbounds nuw i8, ptr %0, i64 336
  %78 = load i64, ptr %77, align 8
  %.not37 = icmp eq i64 %78, 0
  br i1 %.not37, label %79, label %82

79:                                               ; preds = %.critedge.thread
  %80 = getelementptr inbounds nuw i8, ptr %0, i64 344
  %81 = load i64, ptr %80, align 8
  %.not38 = icmp eq i64 %81, 0
  br i1 %.not38, label %85, label %82

82:                                               ; preds = %79, %.critedge.thread
  %83 = getelementptr inbounds nuw i8, ptr %0, i64 16
  %84 = tail call i32 @event_add(ptr noundef nonnull %83, ptr noundef nonnull %77) #3
  br label %85

85:                                               ; preds = %.critedge, %82, %79, %5, %be_readbuf_full.exit
  ret void
}